; Function Attrs: nounwind uwtable
define noalias nonnull ptr @l___private_Lean_Meta_Tactic_Grind_Split_0__Lean_Meta_Grind_selectNextSplit_x3f_go___lambda__2(ptr noundef %0, ptr noundef %1, ptr noundef readnone captures(none) %2, ptr noundef readnone captures(none) %3, ptr noundef readnone captures(none) %4, ptr noundef readnone captures(none) %5, ptr noundef readnone captures(none) %6, ptr noundef readnone captures(none) %7, ptr noundef readnone captures(none) %8, ptr noundef readnone captures(none) %9, ptr noundef readnone captures(none) %10, ptr noundef %11) local_unnamed_addr #0 {
  %13 = ptrtoint ptr %0 to i64
  %14 = ptrtoint ptr %1 to i64
  %15 = and i64 %13, 1
  %16 = and i64 %15, %14
  %or.cond.not = icmp eq i64 %16, 0
  br i1 %or.cond.not, label %.critedge.i, label %17, !prof !20

17:                                               ; preds = %12
  %18 = icmp ult ptr %0, %1
  br label %lean_nat_lt.exit

.critedge.i:                                      ; preds = %12
  %19 = tail call zeroext i1 @lean_nat_big_lt(ptr noundef %0, ptr noundef %1) #4
  br label %lean_nat_lt.exit

lean_nat_lt.exit:                                 ; preds = %17, %.critedge.i
  %.0.i = phi i1 [ %18, %17 ], [ %19, %.critedge.i ]
  tail call void @lean_inc_heartbeat() #4
  %20 = tail call noalias ptr @mi_malloc_small(i64 noundef 24) #4
  %21 = icmp eq ptr %20, null
  br i1 %21, label %22, label %lean_alloc_ctor.exit

22:                                               ; preds = %lean_nat_lt.exit
  tail call void @lean_internal_panic_out_of_memory() #5
  unreachable

lean_alloc_ctor.exit:                             ; preds = %lean_nat_lt.exit
  %23 = select i1 %.0.i, ptr inttoptr (i64 3 to ptr), ptr inttoptr (i64 1 to ptr)
  %24 = getelementptr inbounds nuw i8, ptr %20, i64 4
  store i32 1, ptr %20, align 4, !tbaa !10
  store i32 131096, ptr %24, align 4
  %25 = getelementptr inbounds nuw i8, ptr %20, i64 8
  store ptr %23, ptr %25, align 8, !tbaa !4
  %26 = getelementptr inbounds nuw i8, ptr %20, i64 16
  store ptr %11, ptr %26, align 8, !tbaa !4
  ret ptr %20
}